; Function Attrs: nofree norecurse nosync nounwind memory(readwrite, inaccessiblemem: none) uwtable
define internal void @crossfade_samples_fltp(ptr noundef readonly captures(none) %0, ptr noundef readonly captures(none) %1, ptr noundef readonly captures(none) %2, i32 noundef %3, i32 noundef %4, i32 noundef %5, i32 noundef %6) #6 {
  %8 = icmp sgt i32 %3, 0
  br i1 %8, label %.lr.ph31, label %._crit_edge32

.lr.ph31:                                         ; preds = %7
  %9 = zext nneg i32 %3 to i64
  %10 = icmp sgt i32 %4, 0
  br i1 %10, label %.lr.ph.us.preheader, label %._crit_edge32

.lr.ph.us.preheader:                              ; preds = %.lr.ph31
  %11 = zext nneg i32 %3 to i64
  %wide.trip.count = zext nneg i32 %4 to i64
  br label %.lr.ph.us

.lr.ph.us:                                        ; preds = %.lr.ph.us.preheader, %._crit_edge.us
  %indvars.iv35 = phi i64 [ 0, %.lr.ph.us.preheader ], [ %indvars.iv.next36, %._crit_edge.us ]
  %12 = xor i64 %indvars.iv35, -1
  %13 = add nsw i64 %11, %12
  %14 = tail call nsz fastcc double @fade_gain(i32 noundef %5, i64 noundef %13, i64 noundef %9, double noundef 0.000000e+00, double noundef 1.000000e+00)
  %15 = tail call nsz fastcc double @fade_gain(i32 noundef %6, i64 noundef %indvars.iv35, i64 noundef %9, double noundef 0.000000e+00, double noundef 1.000000e+00)
  br label %16

16:                                               ; preds = %.lr.ph.us, %16
  %indvars.iv = phi i64 [ 0, %.lr.ph.us ], [ %indvars.iv.next, %16 ]
  %17 = getelementptr inbounds nuw ptr, ptr %0, i64 %indvars.iv
  %18 = load ptr, ptr %17, align 8, !tbaa !71
  %19 = getelementptr inbounds nuw ptr, ptr %1, i64 %indvars.iv
  %20 = load ptr, ptr %19, align 8, !tbaa !71
  %21 = getelementptr inbounds nuw ptr, ptr %2, i64 %indvars.iv
  %22 = load ptr, ptr %21, align 8, !tbaa !71
  %23 = getelementptr inbounds nuw float, ptr %20, i64 %indvars.iv35
  %24 = load float, ptr %23, align 4, !tbaa !81
  %25 = fpext nsz float %24 to double
  %26 = getelementptr inbounds nuw float, ptr %22, i64 %indvars.iv35
  %27 = load float, ptr %26, align 4, !tbaa !81
  %28 = fpext nsz float %27 to double
  %29 = fmul nsz double %15, %28
  %30 = tail call nsz double @llvm.fmuladd.f64(double %25, double %14, double %29)
  %31 = fptrunc nsz double %30 to float
  %32 = getelementptr inbounds nuw float, ptr %18, i64 %indvars.iv35
  store float %31, ptr %32, align 4, !tbaa !81
  %indvars.iv.next = add nuw nsw i64 %indvars.iv, 1
  %exitcond.not = icmp eq i64 %indvars.iv.next, %wide.trip.count
  br i1 %exitcond.not, label %._crit_edge.us, label %16, !llvm.loop !115

._crit_edge.us:                                   ; preds = %16
  %indvars.iv.next36 = add nuw nsw i64 %indvars.iv35, 1
  %exitcond39.not = icmp eq i64 %indvars.iv.next36, %9
  br i1 %exitcond39.not, label %._crit_edge32, label %.lr.ph.us, !llvm.loop !116

._crit_edge32:                                    ; preds = %._crit_edge.us, %.lr.ph31, %7
  ret void
}